CCS PCH C Compiler, Version 4.124, 5967               26-mar-13 16:33

               Filename: E:\Eletronica\Projetos\Encoder\encoder.lst

               ROM used: 914 bytes (3%)
                         Largest free fragment is 31850
               RAM used: 31 (2%) at main() level
                         39 (3%) worst case
               Stack:    3 worst case (2 in main + 1 for interrupts)

*
0000:  GOTO   02F4
*
0008:  MOVWF  04
000A:  MOVFF  FD8,05
000E:  MOVFF  FE0,06
0012:  MOVLB  0
0014:  MOVFF  FE9,0C
0018:  MOVFF  FEA,07
001C:  MOVFF  FE1,08
0020:  MOVFF  FE2,09
0024:  MOVFF  FD9,0A
0028:  MOVFF  FDA,0B
002C:  MOVFF  FF3,12
0030:  MOVFF  FF4,13
0034:  MOVFF  FFA,14
0038:  MOVFF  FF5,15
003C:  MOVFF  FF6,16
0040:  MOVFF  FF7,17
0044:  MOVFF  00,0E
0048:  MOVFF  01,0F
004C:  MOVFF  02,10
0050:  MOVFF  03,11
0054:  BTFSS  FF2.4
0056:  GOTO   0060
005A:  BTFSC  FF2.1
005C:  GOTO   00BA
0060:  BTFSS  FF0.3
0062:  GOTO   006C
0066:  BTFSC  FF0.0
0068:  GOTO   00DE
006C:  MOVFF  0E,00
0070:  MOVFF  0F,01
0074:  MOVFF  10,02
0078:  MOVFF  11,03
007C:  MOVFF  0C,FE9
0080:  MOVFF  07,FEA
0084:  BSF    07.7
0086:  MOVFF  08,FE1
008A:  MOVFF  09,FE2
008E:  MOVFF  0A,FD9
0092:  MOVFF  0B,FDA
0096:  MOVFF  12,FF3
009A:  MOVFF  13,FF4
009E:  MOVFF  14,FFA
00A2:  MOVFF  15,FF5
00A6:  MOVFF  16,FF6
00AA:  MOVFF  17,FF7
00AE:  MOVF   04,W
00B0:  MOVFF  06,FE0
00B4:  MOVFF  05,FD8
00B8:  RETFIE 0
.................... /*Ligacao do Encoder 
....................  * 	MR - A 
....................  * 	VM - B 
....................  * 	LR - Z 
....................  * 	AM - VSS 
....................  * 	VD - VDD 
....................  */ 
....................  
.................... #include <18F452.h> 
.................... //////// Standard Header file for the PIC18F452 device //////////////// 
.................... #device PIC18F452 
.................... #list 
....................  
....................  
.................... #fuses H4,NOWDT,NOPROTECT,NOLVP 
.................... #use delay(crystal=10MHz, clock=40MHz) 
02CA:  CLRF   FEA
02CC:  MOVLW  1F
02CE:  MOVWF  FE9
02D0:  MOVF   FEF,W
02D2:  BZ    02F0
02D4:  MOVLW  0C
02D6:  MOVWF  01
02D8:  CLRF   00
02DA:  DECFSZ 00,F
02DC:  BRA    02DA
02DE:  DECFSZ 01,F
02E0:  BRA    02D8
02E2:  MOVLW  F7
02E4:  MOVWF  00
02E6:  DECFSZ 00,F
02E8:  BRA    02E6
02EA:  BRA    02EC
02EC:  DECFSZ FEF,F
02EE:  BRA    02D4
02F0:  GOTO   038E (RETURN)
.................... #use rs232(baud=9600, xmit=PIN_C6, rcv=PIN_C7) 
.................... #use spi(MASTER, DI=PIN_C4, DO=PIN_C5, CLK=PIN_C3, MODE=0,  BAUD=500000, BITS=16, DATA_HOLD=1) 
....................  
.................... static long pulsos, pulsosMax; 
.................... static int zeros; 
....................  
.................... #INT_EXT 
.................... void isr_ext(void) { 
.................... 	clear_interrupt(INT_EXT); 
*
00BA:  BCF    FF2.1
.................... 	pulsos++; 
00BC:  INCF   19,F
00BE:  BTFSC  FD8.2
00C0:  INCF   1A,F
.................... 	if(pulsos > pulsosMax) 
00C2:  MOVF   1C,W
00C4:  SUBWF  1A,W
00C6:  BNC   00D8
00C8:  BNZ   00D0
00CA:  MOVF   19,W
00CC:  SUBWF  1B,W
00CE:  BC    00D8
.................... 		pulsosMax = pulsos; 
00D0:  MOVFF  1A,1C
00D4:  MOVFF  19,1B
.................... } 
....................  
00D8:  BCF    FF2.1
00DA:  GOTO   006C
.................... #INT_EXT1 
.................... void isr_ext1(void) { 
.................... 	clear_interrupt(INT_EXT1); 
00DE:  BCF    FF0.0
.................... 	pulsos = 0; 
00E0:  CLRF   1A
00E2:  CLRF   19
.................... 	zeros++; 
00E4:  INCF   1D,F
.................... } 
....................  
00E6:  BCF    FF0.0
00E8:  GOTO   006C
.................... void main(void) { 
*
02F4:  CLRF   FF8
02F6:  BCF    FD0.7
02F8:  BSF    07.7
02FA:  CLRF   FEA
02FC:  CLRF   FE9
02FE:  MOVLW  40
0300:  MOVWF  FAF
0302:  MOVLW  A2
0304:  MOVWF  FAC
0306:  MOVLW  90
0308:  MOVWF  FAB
030A:  BSF    F94.4
030C:  BCF    F94.5
030E:  BCF    F94.3
0310:  BCF    F8B.3
0312:  BSF    FC1.0
0314:  BSF    FC1.1
0316:  BSF    FC1.2
0318:  BCF    FC1.3
031A:  CLRF   19
031C:  CLRF   1A
031E:  CLRF   1B
0320:  CLRF   1C
0322:  CLRF   1D
.................... 	clear_interrupt(INT_EXT); 
0324:  BCF    FF2.1
.................... 	clear_interrupt(INT_EXT1); 
0326:  BCF    FF0.0
.................... 	enable_interrupts(INT_EXT_H2L); 
0328:  BSF    FF2.4
032A:  BCF    FF1.6
.................... 	enable_interrupts(INT_EXT1_H2L); 
032C:  BSF    FF0.3
032E:  BCF    FF1.5
.................... 	enable_interrupts(GLOBAL); 
0330:  MOVLW  C0
0332:  IORWF  FF2,F
.................... 	while (TRUE) { 
.................... 		printf("\n\rPulsos: %Lu, Zeros:%d Max:%Lu", pulsos, zeros, pulsosMax); 
0334:  MOVLW  EC
0336:  MOVWF  FF6
0338:  MOVLW  00
033A:  MOVWF  FF7
033C:  MOVLW  0A
033E:  MOVWF  1E
0340:  RCALL  010C
0342:  MOVLW  10
0344:  MOVWF  FE9
0346:  MOVFF  1A,1F
034A:  MOVFF  19,1E
034E:  RCALL  012C
0350:  MOVLW  F9
0352:  MOVWF  FF6
0354:  MOVLW  00
0356:  MOVWF  FF7
0358:  MOVLW  08
035A:  MOVWF  1E
035C:  RCALL  010C
035E:  MOVFF  1D,1E
0362:  MOVLW  1F
0364:  MOVWF  1F
0366:  BRA    01F8
0368:  MOVLW  03
036A:  MOVWF  FF6
036C:  MOVLW  01
036E:  MOVWF  FF7
0370:  MOVLW  05
0372:  MOVWF  1E
0374:  RCALL  010C
0376:  MOVLW  10
0378:  MOVWF  FE9
037A:  MOVFF  1C,1F
037E:  MOVFF  1B,1E
0382:  RCALL  012C
.................... 		delay_ms(500); 
0384:  MOVLW  02
0386:  MOVWF  1E
0388:  MOVLW  FA
038A:  MOVWF  1F
038C:  BRA    02CA
038E:  DECFSZ 1E,F
0390:  BRA    0388
.................... 	} 
0392:  BRA    0334
.................... } 
0394:  SLEEP 

Configuration Fuses:
   Word  1: 2600   H4 NOOSCSEN
   Word  2: 0E0E   PUT BROWNOUT BORV20 NOWDT WDT128
   Word  3: 0100   CCP2C1
   Word  4: 0081   STVREN NOLVP NODEBUG
   Word  5: C00F   NOPROTECT NOCPB NOCPD
   Word  6: E00F   NOWRT NOWRTC NOWRTB NOWRTD
   Word  7: 400F   NOEBTR NOEBTRB
